; ModuleID = '55/24.c'
source_filename = "55/24.c"
target datalayout = "e-m:e-p270:32:32-p271:32:32-p272:64:64-i64:64-f80:128-n8:16:32:64-S128"
target triple = "x86_64-pc-linux-gnu"

@trans = dso_local global [36 x i8] c"0123456789ABCDEFGHIJKLMNOPQRSTUVWXYZ", align 16
@.str = private unnamed_addr constant [9 x i8] c"%d %s %d\00", align 1
@a = common dso_local global [32 x i8] zeroinitializer, align 16
@b = common dso_local global [32 x i32] zeroinitializer, align 16
@.str.1 = private unnamed_addr constant [3 x i8] c"%c\00", align 1
@.str.2 = private unnamed_addr constant [2 x i8] c"\0A\00", align 1

; Function Attrs: noinline nounwind uwtable
define dso_local i32 @main() #0 {
  %1 = alloca i32, align 4
  %2 = alloca i32, align 4
  %3 = alloca i32, align 4
  %4 = alloca i32, align 4
  %5 = alloca i32, align 4
  %6 = alloca i32, align 4
  %7 = alloca i64, align 8
  %8 = alloca i32, align 4
  %9 = alloca i32, align 4
  store i32 0, i32* %1, align 4
  %10 = call i32 (i8*, ...) @__isoc99_scanf(i8* getelementptr inbounds ([9 x i8], [9 x i8]* @.str, i64 0, i64 0), i32* %2, i8* getelementptr inbounds ([32 x i8], [32 x i8]* @a, i64 0, i64 0), i32* %3)
  %11 = call i64 @strlen(i8* getelementptr inbounds ([32 x i8], [32 x i8]* @a, i64 0, i64 0)) #3
  %12 = trunc i64 %11 to i32
  store i32 %12, i32* %9, align 4
  store i32 0, i32* %6, align 4
  br label %13

13:                                               ; preds = %92, %0
  %14 = load i32, i32* %6, align 4
  %15 = load i32, i32* %9, align 4
  %16 = icmp slt i32 %14, %15
  br i1 %16, label %17, label %95

17:                                               ; preds = %13
  %18 = load i32, i32* %6, align 4
  %19 = sext i32 %18 to i64
  %20 = getelementptr inbounds [32 x i8], [32 x i8]* @a, i64 0, i64 %19
  %21 = load i8, i8* %20, align 1
  %22 = sext i8 %21 to i32
  %23 = icmp sge i32 %22, 48
  br i1 %23, label %24, label %39

24:                                               ; preds = %17
  %25 = load i32, i32* %6, align 4
  %26 = sext i32 %25 to i64
  %27 = getelementptr inbounds [32 x i8], [32 x i8]* @a, i64 0, i64 %26
  %28 = load i8, i8* %27, align 1
  %29 = sext i8 %28 to i32
  %30 = icmp sle i32 %29, 57
  br i1 %30, label %31, label %39

31:                                               ; preds = %24
  %32 = load i32, i32* %6, align 4
  %33 = sext i32 %32 to i64
  %34 = getelementptr inbounds [32 x i8], [32 x i8]* @a, i64 0, i64 %33
  %35 = load i8, i8* %34, align 1
  %36 = sext i8 %35 to i32
  %37 = sub nsw i32 %36, 48
  %38 = trunc i32 %37 to i8
  store i8 %38, i8* %34, align 1
  br label %39

39:                                               ; preds = %31, %24, %17
  %40 = load i32, i32* %6, align 4
  %41 = sext i32 %40 to i64
  %42 = getelementptr inbounds [32 x i8], [32 x i8]* @a, i64 0, i64 %41
  %43 = load i8, i8* %42, align 1
  %44 = sext i8 %43 to i32
  %45 = icmp sge i32 %44, 97
  br i1 %45, label %46, label %65

46:                                               ; preds = %39
  %47 = load i32, i32* %6, align 4
  %48 = sext i32 %47 to i64
  %49 = getelementptr inbounds [32 x i8], [32 x i8]* @a, i64 0, i64 %48
  %50 = load i8, i8* %49, align 1
  %51 = sext i8 %50 to i32
  %52 = icmp sle i32 %51, 122
  br i1 %52, label %53, label %65

53:                                               ; preds = %46
  %54 = load i32, i32* %6, align 4
  %55 = sext i32 %54 to i64
  %56 = getelementptr inbounds [32 x i8], [32 x i8]* @a, i64 0, i64 %55
  %57 = load i8, i8* %56, align 1
  %58 = sext i8 %57 to i32
  %59 = sub nsw i32 %58, 97
  %60 = add nsw i32 %59, 10
  %61 = trunc i32 %60 to i8
  %62 = load i32, i32* %6, align 4
  %63 = sext i32 %62 to i64
  %64 = getelementptr inbounds [32 x i8], [32 x i8]* @a, i64 0, i64 %63
  store i8 %61, i8* %64, align 1
  br label %65

65:                                               ; preds = %53, %46, %39
  %66 = load i32, i32* %6, align 4
  %67 = sext i32 %66 to i64
  %68 = getelementptr inbounds [32 x i8], [32 x i8]* @a, i64 0, i64 %67
  %69 = load i8, i8* %68, align 1
  %70 = sext i8 %69 to i32
  %71 = icmp sge i32 %70, 65
  br i1 %71, label %72, label %91

72:                                               ; preds = %65
  %73 = load i32, i32* %6, align 4
  %74 = sext i32 %73 to i64
  %75 = getelementptr inbounds [32 x i8], [32 x i8]* @a, i64 0, i64 %74
  %76 = load i8, i8* %75, align 1
  %77 = sext i8 %76 to i32
  %78 = icmp sle i32 %77, 90
  br i1 %78, label %79, label %91

79:                                               ; preds = %72
  %80 = load i32, i32* %6, align 4
  %81 = sext i32 %80 to i64
  %82 = getelementptr inbounds [32 x i8], [32 x i8]* @a, i64 0, i64 %81
  %83 = load i8, i8* %82, align 1
  %84 = sext i8 %83 to i32
  %85 = sub nsw i32 %84, 65
  %86 = add nsw i32 %85, 10
  %87 = trunc i32 %86 to i8
  %88 = load i32, i32* %6, align 4
  %89 = sext i32 %88 to i64
  %90 = getelementptr inbounds [32 x i8], [32 x i8]* @a, i64 0, i64 %89
  store i8 %87, i8* %90, align 1
  br label %91

91:                                               ; preds = %79, %72, %65
  br label %92

92:                                               ; preds = %91
  %93 = load i32, i32* %6, align 4
  %94 = add nsw i32 %93, 1
  store i32 %94, i32* %6, align 4
  br label %13

95:                                               ; preds = %13
  store i64 0, i64* %7, align 8
  store i32 1, i32* %8, align 4
  %96 = load i32, i32* %9, align 4
  %97 = sub nsw i32 %96, 1
  store i32 %97, i32* %5, align 4
  br label %98

98:                                               ; preds = %115, %95
  %99 = load i32, i32* %5, align 4
  %100 = icmp sge i32 %99, 0
  br i1 %100, label %101, label %118

101:                                              ; preds = %98
  %102 = load i32, i32* %5, align 4
  %103 = sext i32 %102 to i64
  %104 = getelementptr inbounds [32 x i8], [32 x i8]* @a, i64 0, i64 %103
  %105 = load i8, i8* %104, align 1
  %106 = sext i8 %105 to i32
  %107 = load i32, i32* %8, align 4
  %108 = mul nsw i32 %106, %107
  %109 = sext i32 %108 to i64
  %110 = load i64, i64* %7, align 8
  %111 = add nsw i64 %110, %109
  store i64 %111, i64* %7, align 8
  %112 = load i32, i32* %2, align 4
  %113 = load i32, i32* %8, align 4
  %114 = mul nsw i32 %113, %112
  store i32 %114, i32* %8, align 4
  br label %115

115:                                              ; preds = %101
  %116 = load i32, i32* %5, align 4
  %117 = add nsw i32 %116, -1
  store i32 %117, i32* %5, align 4
  br label %98

118:                                              ; preds = %98
  store i32 0, i32* %6, align 4
  br label %119

119:                                              ; preds = %122, %118
  %120 = load i64, i64* %7, align 8
  %121 = icmp ne i64 %120, 0
  br i1 %121, label %122, label %137

122:                                              ; preds = %119
  %123 = load i64, i64* %7, align 8
  %124 = load i32, i32* %3, align 4
  %125 = sext i32 %124 to i64
  %126 = srem i64 %123, %125
  %127 = trunc i64 %126 to i32
  %128 = load i32, i32* %6, align 4
  %129 = sext i32 %128 to i64
  %130 = getelementptr inbounds [32 x i32], [32 x i32]* @b, i64 0, i64 %129
  store i32 %127, i32* %130, align 4
  %131 = load i64, i64* %7, align 8
  %132 = load i32, i32* %3, align 4
  %133 = sext i32 %132 to i64
  %134 = sdiv i64 %131, %133
  store i64 %134, i64* %7, align 8
  %135 = load i32, i32* %6, align 4
  %136 = add nsw i32 %135, 1
  store i32 %136, i32* %6, align 4
  br label %119

137:                                              ; preds = %119
  %138 = load i32, i32* %6, align 4
  %139 = sub nsw i32 %138, 1
  store i32 %139, i32* %4, align 4
  br label %140

140:                                              ; preds = %160, %137
  %141 = load i32, i32* %4, align 4
  %142 = icmp sge i32 %141, 0
  br i1 %142, label %143, label %163

143:                                              ; preds = %140
  %144 = load i32, i32* %4, align 4
  %145 = sext i32 %144 to i64
  %146 = getelementptr inbounds [32 x i32], [32 x i32]* @b, i64 0, i64 %145
  %147 = load i32, i32* %146, align 4
  %148 = icmp ne i32 %147, -1
  br i1 %148, label %149, label %159

149:                                              ; preds = %143
  %150 = load i32, i32* %4, align 4
  %151 = sext i32 %150 to i64
  %152 = getelementptr inbounds [32 x i32], [32 x i32]* @b, i64 0, i64 %151
  %153 = load i32, i32* %152, align 4
  %154 = sext i32 %153 to i64
  %155 = getelementptr inbounds [36 x i8], [36 x i8]* @trans, i64 0, i64 %154
  %156 = load i8, i8* %155, align 1
  %157 = sext i8 %156 to i32
  %158 = call i32 (i8*, ...) @printf(i8* getelementptr inbounds ([3 x i8], [3 x i8]* @.str.1, i64 0, i64 0), i32 %157)
  br label %159

159:                                              ; preds = %149, %143
  br label %160

160:                                              ; preds = %159
  %161 = load i32, i32* %4, align 4
  %162 = add nsw i32 %161, -1
  store i32 %162, i32* %4, align 4
  br label %140

163:                                              ; preds = %140
  %164 = call i32 (i8*, ...) @printf(i8* getelementptr inbounds ([2 x i8], [2 x i8]* @.str.2, i64 0, i64 0))
  ret i32 0
}

declare dso_local i32 @__isoc99_scanf(i8*, ...) #1

; Function Attrs: nounwind readonly
declare dso_local i64 @strlen(i8*) #2

declare dso_local i32 @printf(i8*, ...) #1


!llvm.module.flags = !{!0}
!llvm.ident = !{!1}

!0 = !{i32 1, !"wchar_size", i32 4}
!1 = !{!"clang version 10.0.0-4ubuntu1 "}
